; Function Attrs: nounwind uwtable
define internal void @tts_heap_copyslot(ptr noundef captures(none) %0, ptr noundef %1) #1 {
  %3 = getelementptr inbounds nuw i8, ptr %0, i64 40
  %4 = load ptr, ptr %3, align 8
  %5 = load ptr, ptr @CurrentMemoryContext, align 8
  store ptr %4, ptr @CurrentMemoryContext, align 8
  %6 = getelementptr inbounds nuw i8, ptr %1, i64 8
  %7 = load ptr, ptr %6, align 8
  %8 = getelementptr inbounds nuw i8, ptr %7, i64 88
  %9 = load ptr, ptr %8, align 8
  %10 = tail call ptr %9(ptr noundef %1) #14
  store ptr %5, ptr @CurrentMemoryContext, align 8
  %11 = getelementptr inbounds nuw i8, ptr %0, i64 8
  %12 = load ptr, ptr %11, align 8
  %.not.i = icmp eq ptr %12, @TTSOpsHeapTuple
  br i1 %.not.i, label %16, label %13, !prof !4

13:                                               ; preds = %2
  %14 = tail call zeroext i1 @errstart_cold(i32 noundef 21, ptr noundef null) #15
  tail call void @llvm.assume(i1 %14)
  %15 = tail call i32 (ptr, ...) @errmsg_internal(ptr noundef nonnull @.str) #14
  tail call void @errfinish(ptr noundef nonnull @.str.1, i32 noundef 1551, ptr noundef nonnull @__func__.ExecStoreHeapTuple) #14
  unreachable

16:                                               ; preds = %2
  %17 = getelementptr inbounds nuw i8, ptr %0, i64 4
  %18 = load i16, ptr %17, align 4
  %19 = and i16 %18, 4
  %.not.i.i.i = icmp eq i16 %19, 0
  br i1 %.not.i.i.i, label %ExecStoreHeapTuple.exit, label %20

20:                                               ; preds = %16
  %21 = getelementptr inbounds nuw i8, ptr %0, i64 64
  %22 = load ptr, ptr %21, align 8
  tail call void @heap_freetuple(ptr noundef %22) #14
  %23 = load i16, ptr %17, align 4
  br label %ExecStoreHeapTuple.exit

ExecStoreHeapTuple.exit:                          ; preds = %16, %20
  %24 = phi i16 [ %23, %20 ], [ %18, %16 ]
  %25 = getelementptr inbounds nuw i8, ptr %0, i64 6
  %26 = getelementptr inbounds nuw i8, ptr %0, i64 48
  store i16 -1, ptr %26, align 2
  %27 = getelementptr inbounds nuw i8, ptr %0, i64 50
  store i16 -1, ptr %27, align 2
  %28 = getelementptr inbounds nuw i8, ptr %0, i64 52
  store i16 0, ptr %28, align 2
  %29 = getelementptr inbounds nuw i8, ptr %0, i64 72
  %30 = getelementptr inbounds nuw i8, ptr %0, i64 64
  store i16 0, ptr %25, align 2
  store ptr %10, ptr %30, align 8
  store i32 0, ptr %29, align 8
  %31 = and i16 %24, -7
  store i16 %31, ptr %17, align 4
  %32 = getelementptr inbounds nuw i8, ptr %10, i64 4
  tail call void @llvm.memcpy.p0.p0.i64(ptr noundef nonnull align 8 dereferenceable(6) %26, ptr noundef nonnull align 4 dereferenceable(6) %32, i64 6, i1 false)
  %33 = or disjoint i16 %31, 4
  store i16 %33, ptr %17, align 4
  %34 = getelementptr inbounds nuw i8, ptr %10, i64 12
  %35 = load i32, ptr %34, align 4
  %36 = getelementptr inbounds nuw i8, ptr %0, i64 56
  store i32 %35, ptr %36, align 8
  ret void
}